
main.o:     file format elf32-i386


Disassembly of section .group:

00000000 <.group>:
   0:	01 00                	add    %eax,(%eax)
   2:	00 00                	add    %al,(%eax)
   4:	07                   	pop    %es
   5:	00 00                	add    %al,(%eax)
	...

Disassembly of section .text:

00000000 <uEntry>:
   0:	55                   	push   %ebp
   1:	89 e5                	mov    %esp,%ebp
   3:	57                   	push   %edi
   4:	56                   	push   %esi
   5:	53                   	push   %ebx
   6:	83 ec 0c             	sub    $0xc,%esp
   9:	e8 fc ff ff ff       	call   a <uEntry+0xa>
   e:	81 c3 02 00 00 00    	add    $0x2,%ebx
  14:	e8 fc ff ff ff       	call   15 <uEntry+0x15>
  19:	85 c0                	test   %eax,%eax
  1b:	75 53                	jne    70 <uEntry+0x70>
  1d:	c7 83 00 00 00 00 02 	movl   $0x2,0x0(%ebx)
  24:	00 00 00 
  27:	b8 02 00 00 00       	mov    $0x2,%eax
  2c:	bf 08 00 00 00       	mov    $0x8,%edi
  31:	8d b3 00 00 00 00    	lea    0x0(%ebx),%esi
  37:	eb 09                	jmp    42 <uEntry+0x42>
  39:	8d 76 00             	lea    0x0(%esi),%esi
  3c:	8b 83 00 00 00 00    	mov    0x0(%ebx),%eax
  42:	4f                   	dec    %edi
  43:	51                   	push   %ecx
  44:	57                   	push   %edi
  45:	50                   	push   %eax
  46:	56                   	push   %esi
  47:	e8 fc ff ff ff       	call   48 <uEntry+0x48>
  4c:	c7 04 24 80 00 00 00 	movl   $0x80,(%esp)
  53:	e8 fc ff ff ff       	call   54 <uEntry+0x54>
  58:	83 c4 10             	add    $0x10,%esp
  5b:	85 ff                	test   %edi,%edi
  5d:	75 dd                	jne    3c <uEntry+0x3c>
  5f:	e8 fc ff ff ff       	call   60 <uEntry+0x60>
  64:	31 c0                	xor    %eax,%eax
  66:	8d 65 f4             	lea    -0xc(%ebp),%esp
  69:	5b                   	pop    %ebx
  6a:	5e                   	pop    %esi
  6b:	5f                   	pop    %edi
  6c:	5d                   	pop    %ebp
  6d:	c3                   	ret    
  6e:	66 90                	xchg   %ax,%ax
  70:	40                   	inc    %eax
  71:	74 f1                	je     64 <uEntry+0x64>
  73:	c7 83 00 00 00 00 01 	movl   $0x1,0x0(%ebx)
  7a:	00 00 00 
  7d:	b8 01 00 00 00       	mov    $0x1,%eax
  82:	bf 08 00 00 00       	mov    $0x8,%edi
  87:	8d b3 00 00 00 00    	lea    0x0(%ebx),%esi
  8d:	eb 07                	jmp    96 <uEntry+0x96>
  8f:	90                   	nop
  90:	8b 83 00 00 00 00    	mov    0x0(%ebx),%eax
  96:	4f                   	dec    %edi
  97:	52                   	push   %edx
  98:	57                   	push   %edi
  99:	50                   	push   %eax
  9a:	56                   	push   %esi
  9b:	e8 fc ff ff ff       	call   9c <uEntry+0x9c>
  a0:	c7 04 24 80 00 00 00 	movl   $0x80,(%esp)
  a7:	e8 fc ff ff ff       	call   a8 <uEntry+0xa8>
  ac:	83 c4 10             	add    $0x10,%esp
  af:	85 ff                	test   %edi,%edi
  b1:	75 dd                	jne    90 <uEntry+0x90>
  b3:	eb aa                	jmp    5f <uEntry+0x5f>

Disassembly of section .text.__x86.get_pc_thunk.bx:

00000000 <__x86.get_pc_thunk.bx>:
   0:	8b 1c 24             	mov    (%esp),%ebx
   3:	c3                   	ret    
